target datalayout = "e-m:e-p270:32:32-p271:32:32-p272:64:64-i64:64-i128:128-f80:128-n8:16:32:64-S128"
target triple = "x86_64-pc-linux-gnu"

%struct.H5AC_cache_config_t = type { i32, i8, i8, i8, [1025 x i8], i8, i8, i64, double, i64, i64, i64, i32, double, double, i8, i64, i32, double, double, i32, double, double, i8, i64, i32, i8, double, i64, i32 }
%struct.H5C_auto_size_ctl_t = type { i32, ptr, i8, i64, double, i64, i64, i64, i32, double, double, i8, i64, i32, double, double, i32, double, double, i8, i64, i32, i8, double }

@H5AC_init_g = global i8 0, align 1
@H5_libterm_g = external global i8, align 1
@.str = private unnamed_addr constant [98 x i8] c"generated/home/dtcxzyw/WorkSpace/Projects/compilers/llvm-opt-benchmark/bench/hdf5/hdf5/src/H5AC.c\00", align 1
@H5E_CACHE_g = external global i64, align 8
@H5E_SYSTEM_g = external global i64, align 8
@__func__.H5AC__ext_config_2_int_config = private unnamed_addr constant [30 x i8] c"H5AC__ext_config_2_int_config\00", align 1
@.str.70 = private unnamed_addr constant [42 x i8] c"Bad ext_conf_ptr or inf_conf_ptr on entry\00", align 1

; Function Attrs: nounwind uwtable
define internal i32 @H5AC__ext_config_2_int_config(ptr noundef %0, ptr noundef %1) #0 {
  %3 = alloca ptr, align 8
  %4 = alloca ptr, align 8
  %5 = alloca i32, align 4
  %6 = alloca i8, align 1
  store ptr %0, ptr %3, align 8, !tbaa !43
  store ptr %1, ptr %4, align 8, !tbaa !140
  call void @llvm.lifetime.start.p0(i64 4, ptr %5) #6
  store i32 0, ptr %5, align 4, !tbaa !3
  call void @llvm.lifetime.start.p0(i64 1, ptr %6) #6
  store i8 0, ptr %6, align 1, !tbaa !7
  %7 = load i8, ptr @H5AC_init_g, align 1, !tbaa !7, !range !9, !noundef !10
  %8 = trunc i8 %7 to i1
  br i1 %8, label %13, label %9

9:                                                ; preds = %2
  %10 = load i8, ptr @H5_libterm_g, align 1, !tbaa !7, !range !9, !noundef !10
  %11 = trunc i8 %10 to i1
  %12 = xor i1 %11, true
  br label %13

13:                                               ; preds = %9, %2
  %14 = phi i1 [ true, %2 ], [ %12, %9 ]
  %15 = xor i1 %14, true
  %16 = xor i1 %15, true
  %17 = zext i1 %16 to i32
  %18 = sext i32 %17 to i64
  %19 = call i64 @llvm.expect.i64(i64 %18, i64 1)
  %20 = icmp ne i64 %19, 0
  br i1 %20, label %21, label %184

21:                                               ; preds = %13
  %22 = load ptr, ptr %3, align 8, !tbaa !43
  %23 = icmp eq ptr %22, null
  br i1 %23, label %32, label %24

24:                                               ; preds = %21
  %25 = load ptr, ptr %3, align 8, !tbaa !43
  %26 = getelementptr inbounds nuw %struct.H5AC_cache_config_t, ptr %25, i32 0, i32 0
  %27 = load i32, ptr %26, align 8, !tbaa !67
  %28 = icmp ne i32 %27, 1
  br i1 %28, label %32, label %29

29:                                               ; preds = %24
  %30 = load ptr, ptr %4, align 8, !tbaa !140
  %31 = icmp eq ptr %30, null
  br i1 %31, label %32, label %51

32:                                               ; preds = %29, %24, %21
  br label %33

33:                                               ; preds = %32
  br label %34

34:                                               ; preds = %33
  br label %35

35:                                               ; preds = %34
  %36 = load i64, ptr @H5E_CACHE_g, align 8, !tbaa !11
  %37 = load i64, ptr @H5E_SYSTEM_g, align 8, !tbaa !11
  %38 = call i32 (ptr, ptr, i32, i64, i64, ptr, ...) @H5E_printf_stack(ptr noundef @.str, ptr noundef @__func__.H5AC__ext_config_2_int_config, i32 noundef 2061, i64 noundef %36, i64 noundef %37, ptr noundef @.str.70)
  br label %39

39:                                               ; preds = %35
  br label %40

40:                                               ; preds = %39
  store i8 1, ptr %6, align 1, !tbaa !7
  %41 = load i8, ptr %6, align 1, !tbaa !7, !range !9, !noundef !10
  %42 = trunc i8 %41 to i1
  %43 = zext i1 %42 to i8
  store i8 %43, ptr %6, align 1, !tbaa !7
  br label %44

44:                                               ; preds = %40
  br label %45

45:                                               ; preds = %44
  br label %46

46:                                               ; preds = %45
  store i32 -1, ptr %5, align 4, !tbaa !3
  br label %183

47:                                               ; No predecessors!
  br label %48

48:                                               ; preds = %47
  br label %49

49:                                               ; preds = %48
  br label %50

50:                                               ; preds = %49
  br label %51

51:                                               ; preds = %50, %29
  %52 = load ptr, ptr %4, align 8, !tbaa !140
  %53 = getelementptr inbounds nuw %struct.H5C_auto_size_ctl_t, ptr %52, i32 0, i32 0
  store i32 1, ptr %53, align 8, !tbaa !142
  %54 = load ptr, ptr %3, align 8, !tbaa !43
  %55 = getelementptr inbounds nuw %struct.H5AC_cache_config_t, ptr %54, i32 0, i32 1
  %56 = load i8, ptr %55, align 4, !tbaa !94, !range !9, !noundef !10
  %57 = trunc i8 %56 to i1
  br i1 %57, label %58, label %61

58:                                               ; preds = %51
  %59 = load ptr, ptr %4, align 8, !tbaa !140
  %60 = getelementptr inbounds nuw %struct.H5C_auto_size_ctl_t, ptr %59, i32 0, i32 1
  store ptr @H5C_def_auto_resize_rpt_fcn, ptr %60, align 8, !tbaa !93
  br label %64

61:                                               ; preds = %51
  %62 = load ptr, ptr %4, align 8, !tbaa !140
  %63 = getelementptr inbounds nuw %struct.H5C_auto_size_ctl_t, ptr %62, i32 0, i32 1
  store ptr null, ptr %63, align 8, !tbaa !93
  br label %64

64:                                               ; preds = %61, %58
  %65 = load ptr, ptr %3, align 8, !tbaa !43
  %66 = getelementptr inbounds nuw %struct.H5AC_cache_config_t, ptr %65, i32 0, i32 6
  %67 = load i8, ptr %66, align 1, !tbaa !97, !range !9, !noundef !10
  %68 = trunc i8 %67 to i1
  %69 = load ptr, ptr %4, align 8, !tbaa !140
  %70 = getelementptr inbounds nuw %struct.H5C_auto_size_ctl_t, ptr %69, i32 0, i32 2
  %71 = zext i1 %68 to i8
  store i8 %71, ptr %70, align 8, !tbaa !96
  %72 = load ptr, ptr %3, align 8, !tbaa !43
  %73 = getelementptr inbounds nuw %struct.H5AC_cache_config_t, ptr %72, i32 0, i32 7
  %74 = load i64, ptr %73, align 8, !tbaa !99
  %75 = load ptr, ptr %4, align 8, !tbaa !140
  %76 = getelementptr inbounds nuw %struct.H5C_auto_size_ctl_t, ptr %75, i32 0, i32 3
  store i64 %74, ptr %76, align 8, !tbaa !98
  %77 = load ptr, ptr %3, align 8, !tbaa !43
  %78 = getelementptr inbounds nuw %struct.H5AC_cache_config_t, ptr %77, i32 0, i32 8
  %79 = load double, ptr %78, align 8, !tbaa !101
  %80 = load ptr, ptr %4, align 8, !tbaa !140
  %81 = getelementptr inbounds nuw %struct.H5C_auto_size_ctl_t, ptr %80, i32 0, i32 4
  store double %79, ptr %81, align 8, !tbaa !100
  %82 = load ptr, ptr %3, align 8, !tbaa !43
  %83 = getelementptr inbounds nuw %struct.H5AC_cache_config_t, ptr %82, i32 0, i32 9
  %84 = load i64, ptr %83, align 8, !tbaa !103
  %85 = load ptr, ptr %4, align 8, !tbaa !140
  %86 = getelementptr inbounds nuw %struct.H5C_auto_size_ctl_t, ptr %85, i32 0, i32 5
  store i64 %84, ptr %86, align 8, !tbaa !102
  %87 = load ptr, ptr %3, align 8, !tbaa !43
  %88 = getelementptr inbounds nuw %struct.H5AC_cache_config_t, ptr %87, i32 0, i32 10
  %89 = load i64, ptr %88, align 8, !tbaa !105
  %90 = load ptr, ptr %4, align 8, !tbaa !140
  %91 = getelementptr inbounds nuw %struct.H5C_auto_size_ctl_t, ptr %90, i32 0, i32 6
  store i64 %89, ptr %91, align 8, !tbaa !104
  %92 = load ptr, ptr %3, align 8, !tbaa !43
  %93 = getelementptr inbounds nuw %struct.H5AC_cache_config_t, ptr %92, i32 0, i32 11
  %94 = load i64, ptr %93, align 8, !tbaa !107
  %95 = load ptr, ptr %4, align 8, !tbaa !140
  %96 = getelementptr inbounds nuw %struct.H5C_auto_size_ctl_t, ptr %95, i32 0, i32 7
  store i64 %94, ptr %96, align 8, !tbaa !106
  %97 = load ptr, ptr %3, align 8, !tbaa !43
  %98 = getelementptr inbounds nuw %struct.H5AC_cache_config_t, ptr %97, i32 0, i32 12
  %99 = load i32, ptr %98, align 8, !tbaa !70
  %100 = load ptr, ptr %4, align 8, !tbaa !140
  %101 = getelementptr inbounds nuw %struct.H5C_auto_size_ctl_t, ptr %100, i32 0, i32 8
  store i32 %99, ptr %101, align 8, !tbaa !108
  %102 = load ptr, ptr %3, align 8, !tbaa !43
  %103 = getelementptr inbounds nuw %struct.H5AC_cache_config_t, ptr %102, i32 0, i32 13
  %104 = load double, ptr %103, align 8, !tbaa !110
  %105 = load ptr, ptr %4, align 8, !tbaa !140
  %106 = getelementptr inbounds nuw %struct.H5C_auto_size_ctl_t, ptr %105, i32 0, i32 9
  store double %104, ptr %106, align 8, !tbaa !109
  %107 = load ptr, ptr %3, align 8, !tbaa !43
  %108 = getelementptr inbounds nuw %struct.H5AC_cache_config_t, ptr %107, i32 0, i32 14
  %109 = load double, ptr %108, align 8, !tbaa !112
  %110 = load ptr, ptr %4, align 8, !tbaa !140
  %111 = getelementptr inbounds nuw %struct.H5C_auto_size_ctl_t, ptr %110, i32 0, i32 10
  store double %109, ptr %111, align 8, !tbaa !111
  %112 = load ptr, ptr %3, align 8, !tbaa !43
  %113 = getelementptr inbounds nuw %struct.H5AC_cache_config_t, ptr %112, i32 0, i32 15
  %114 = load i8, ptr %113, align 8, !tbaa !114, !range !9, !noundef !10
  %115 = trunc i8 %114 to i1
  %116 = load ptr, ptr %4, align 8, !tbaa !140
  %117 = getelementptr inbounds nuw %struct.H5C_auto_size_ctl_t, ptr %116, i32 0, i32 11
  %118 = zext i1 %115 to i8
  store i8 %118, ptr %117, align 8, !tbaa !113
  %119 = load ptr, ptr %3, align 8, !tbaa !43
  %120 = getelementptr inbounds nuw %struct.H5AC_cache_config_t, ptr %119, i32 0, i32 16
  %121 = load i64, ptr %120, align 8, !tbaa !116
  %122 = load ptr, ptr %4, align 8, !tbaa !140
  %123 = getelementptr inbounds nuw %struct.H5C_auto_size_ctl_t, ptr %122, i32 0, i32 12
  store i64 %121, ptr %123, align 8, !tbaa !115
  %124 = load ptr, ptr %3, align 8, !tbaa !43
  %125 = getelementptr inbounds nuw %struct.H5AC_cache_config_t, ptr %124, i32 0, i32 17
  %126 = load i32, ptr %125, align 8, !tbaa !71
  %127 = load ptr, ptr %4, align 8, !tbaa !140
  %128 = getelementptr inbounds nuw %struct.H5C_auto_size_ctl_t, ptr %127, i32 0, i32 13
  store i32 %126, ptr %128, align 8, !tbaa !120
  %129 = load ptr, ptr %3, align 8, !tbaa !43
  %130 = getelementptr inbounds nuw %struct.H5AC_cache_config_t, ptr %129, i32 0, i32 18
  %131 = load double, ptr %130, align 8, !tbaa !122
  %132 = load ptr, ptr %4, align 8, !tbaa !140
  %133 = getelementptr inbounds nuw %struct.H5C_auto_size_ctl_t, ptr %132, i32 0, i32 14
  store double %131, ptr %133, align 8, !tbaa !121
  %134 = load ptr, ptr %3, align 8, !tbaa !43
  %135 = getelementptr inbounds nuw %struct.H5AC_cache_config_t, ptr %134, i32 0, i32 19
  %136 = load double, ptr %135, align 8, !tbaa !124
  %137 = load ptr, ptr %4, align 8, !tbaa !140
  %138 = getelementptr inbounds nuw %struct.H5C_auto_size_ctl_t, ptr %137, i32 0, i32 15
  store double %136, ptr %138, align 8, !tbaa !123
  %139 = load ptr, ptr %3, align 8, !tbaa !43
  %140 = getelementptr inbounds nuw %struct.H5AC_cache_config_t, ptr %139, i32 0, i32 20
  %141 = load i32, ptr %140, align 8, !tbaa !72
  %142 = load ptr, ptr %4, align 8, !tbaa !140
  %143 = getelementptr inbounds nuw %struct.H5C_auto_size_ctl_t, ptr %142, i32 0, i32 16
  store i32 %141, ptr %143, align 8, !tbaa !117
  %144 = load ptr, ptr %3, align 8, !tbaa !43
  %145 = getelementptr inbounds nuw %struct.H5AC_cache_config_t, ptr %144, i32 0, i32 21
  %146 = load double, ptr %145, align 8, !tbaa !119
  %147 = load ptr, ptr %4, align 8, !tbaa !140
  %148 = getelementptr inbounds nuw %struct.H5C_auto_size_ctl_t, ptr %147, i32 0, i32 17
  store double %146, ptr %148, align 8, !tbaa !118
  %149 = load ptr, ptr %3, align 8, !tbaa !43
  %150 = getelementptr inbounds nuw %struct.H5AC_cache_config_t, ptr %149, i32 0, i32 22
  %151 = load double, ptr %150, align 8, !tbaa !126
  %152 = load ptr, ptr %4, align 8, !tbaa !140
  %153 = getelementptr inbounds nuw %struct.H5C_auto_size_ctl_t, ptr %152, i32 0, i32 18
  store double %151, ptr %153, align 8, !tbaa !125
  %154 = load ptr, ptr %3, align 8, !tbaa !43
  %155 = getelementptr inbounds nuw %struct.H5AC_cache_config_t, ptr %154, i32 0, i32 23
  %156 = load i8, ptr %155, align 8, !tbaa !128, !range !9, !noundef !10
  %157 = trunc i8 %156 to i1
  %158 = load ptr, ptr %4, align 8, !tbaa !140
  %159 = getelementptr inbounds nuw %struct.H5C_auto_size_ctl_t, ptr %158, i32 0, i32 19
  %160 = zext i1 %157 to i8
  store i8 %160, ptr %159, align 8, !tbaa !127
  %161 = load ptr, ptr %3, align 8, !tbaa !43
  %162 = getelementptr inbounds nuw %struct.H5AC_cache_config_t, ptr %161, i32 0, i32 24
  %163 = load i64, ptr %162, align 8, !tbaa !130
  %164 = load ptr, ptr %4, align 8, !tbaa !140
  %165 = getelementptr inbounds nuw %struct.H5C_auto_size_ctl_t, ptr %164, i32 0, i32 20
  store i64 %163, ptr %165, align 8, !tbaa !129
  %166 = load ptr, ptr %3, align 8, !tbaa !43
  %167 = getelementptr inbounds nuw %struct.H5AC_cache_config_t, ptr %166, i32 0, i32 25
  %168 = load i32, ptr %167, align 8, !tbaa !132
  %169 = load ptr, ptr %4, align 8, !tbaa !140
  %170 = getelementptr inbounds nuw %struct.H5C_auto_size_ctl_t, ptr %169, i32 0, i32 21
  store i32 %168, ptr %170, align 8, !tbaa !131
  %171 = load ptr, ptr %3, align 8, !tbaa !43
  %172 = getelementptr inbounds nuw %struct.H5AC_cache_config_t, ptr %171, i32 0, i32 26
  %173 = load i8, ptr %172, align 4, !tbaa !134, !range !9, !noundef !10
  %174 = trunc i8 %173 to i1
  %175 = load ptr, ptr %4, align 8, !tbaa !140
  %176 = getelementptr inbounds nuw %struct.H5C_auto_size_ctl_t, ptr %175, i32 0, i32 22
  %177 = zext i1 %174 to i8
  store i8 %177, ptr %176, align 4, !tbaa !133
  %178 = load ptr, ptr %3, align 8, !tbaa !43
  %179 = getelementptr inbounds nuw %struct.H5AC_cache_config_t, ptr %178, i32 0, i32 27
  %180 = load double, ptr %179, align 8, !tbaa !136
  %181 = load ptr, ptr %4, align 8, !tbaa !140
  %182 = getelementptr inbounds nuw %struct.H5C_auto_size_ctl_t, ptr %181, i32 0, i32 23
  store double %180, ptr %182, align 8, !tbaa !135
  br label %183

183:                                              ; preds = %64, %46
  br label %184

184:                                              ; preds = %183, %13
  %185 = load i32, ptr %5, align 4, !tbaa !3
  call void @llvm.lifetime.end.p0(i64 1, ptr %6) #6
  call void @llvm.lifetime.end.p0(i64 4, ptr %5) #6
  ret i32 %185
}