; Function Attrs: nounwind uwtable
define internal fastcc range(i32 -1, 1) i32 @H5AC__ext_config_2_int_config(ptr noundef readonly captures(address_is_null) %0, ptr noundef nonnull writeonly captures(none) %1) unnamed_addr #4 {
  %3 = load i8, ptr @H5AC_init_g, align 1, !tbaa !3, !range !7, !noundef !8
  %4 = trunc nuw i8 %3 to i1
  %5 = load i8, ptr @H5_libterm_g, align 1, !range !7
  %6 = trunc nuw i8 %5 to i1
  %7 = xor i1 %6, true
  %8 = select i1 %4, i1 true, i1 %7
  br i1 %8, label %9, label %88, !prof !9

9:                                                ; preds = %2
  %10 = icmp eq ptr %0, null
  br i1 %10, label %13, label %11

11:                                               ; preds = %9
  %12 = load i32, ptr %0, align 8, !tbaa !63
  %.not = icmp eq i32 %12, 1
  br i1 %.not, label %17, label %13

13:                                               ; preds = %9, %11
  %14 = load i64, ptr @H5E_CACHE_g, align 8, !tbaa !42
  %15 = load i64, ptr @H5E_SYSTEM_g, align 8, !tbaa !42
  %16 = tail call i32 (ptr, ptr, i32, i64, i64, ptr, ...) @H5E_printf_stack(ptr noundef nonnull @.str, ptr noundef nonnull @__func__.H5AC__ext_config_2_int_config, i32 noundef 2061, i64 noundef %14, i64 noundef %15, ptr noundef nonnull @.str.70) #8
  br label %88

17:                                               ; preds = %11
  store i32 1, ptr %1, align 8, !tbaa !72
  %18 = getelementptr inbounds nuw i8, ptr %0, i64 4
  %19 = load i8, ptr %18, align 4, !tbaa !73, !range !7, !noundef !8
  %20 = trunc nuw i8 %19 to i1
  %spec.select = select i1 %20, ptr @H5C_def_auto_resize_rpt_fcn, ptr null
  %21 = getelementptr inbounds nuw i8, ptr %1, i64 8
  store ptr %spec.select, ptr %21, align 8, !tbaa !74
  %22 = getelementptr inbounds nuw i8, ptr %0, i64 1033
  %23 = load i8, ptr %22, align 1, !tbaa !75, !range !7, !noundef !8
  %24 = getelementptr inbounds nuw i8, ptr %1, i64 16
  store i8 %23, ptr %24, align 8, !tbaa !76
  %25 = getelementptr inbounds nuw i8, ptr %0, i64 1040
  %26 = load i64, ptr %25, align 8, !tbaa !77
  %27 = getelementptr inbounds nuw i8, ptr %1, i64 24
  store i64 %26, ptr %27, align 8, !tbaa !78
  %28 = getelementptr inbounds nuw i8, ptr %0, i64 1048
  %29 = load double, ptr %28, align 8, !tbaa !79
  %30 = getelementptr inbounds nuw i8, ptr %1, i64 32
  store double %29, ptr %30, align 8, !tbaa !80
  %31 = getelementptr inbounds nuw i8, ptr %0, i64 1056
  %32 = load i64, ptr %31, align 8, !tbaa !81
  %33 = getelementptr inbounds nuw i8, ptr %1, i64 40
  store i64 %32, ptr %33, align 8, !tbaa !82
  %34 = getelementptr inbounds nuw i8, ptr %0, i64 1064
  %35 = load i64, ptr %34, align 8, !tbaa !83
  %36 = getelementptr inbounds nuw i8, ptr %1, i64 48
  store i64 %35, ptr %36, align 8, !tbaa !84
  %37 = getelementptr inbounds nuw i8, ptr %0, i64 1072
  %38 = load i64, ptr %37, align 8, !tbaa !85
  %39 = getelementptr inbounds nuw i8, ptr %1, i64 56
  store i64 %38, ptr %39, align 8, !tbaa !86
  %40 = getelementptr inbounds nuw i8, ptr %0, i64 1080
  %41 = load i32, ptr %40, align 8, !tbaa !66
  %42 = getelementptr inbounds nuw i8, ptr %1, i64 64
  store i32 %41, ptr %42, align 8, !tbaa !87
  %43 = getelementptr inbounds nuw i8, ptr %0, i64 1088
  %44 = load double, ptr %43, align 8, !tbaa !88
  %45 = getelementptr inbounds nuw i8, ptr %1, i64 72
  store double %44, ptr %45, align 8, !tbaa !89
  %46 = getelementptr inbounds nuw i8, ptr %0, i64 1096
  %47 = load double, ptr %46, align 8, !tbaa !90
  %48 = getelementptr inbounds nuw i8, ptr %1, i64 80
  store double %47, ptr %48, align 8, !tbaa !91
  %49 = getelementptr inbounds nuw i8, ptr %0, i64 1104
  %50 = load i8, ptr %49, align 8, !tbaa !92, !range !7, !noundef !8
  %51 = getelementptr inbounds nuw i8, ptr %1, i64 88
  store i8 %50, ptr %51, align 8, !tbaa !93
  %52 = getelementptr inbounds nuw i8, ptr %0, i64 1112
  %53 = load i64, ptr %52, align 8, !tbaa !94
  %54 = getelementptr inbounds nuw i8, ptr %1, i64 96
  store i64 %53, ptr %54, align 8, !tbaa !95
  %55 = getelementptr inbounds nuw i8, ptr %0, i64 1120
  %56 = load i32, ptr %55, align 8, !tbaa !67
  %57 = getelementptr inbounds nuw i8, ptr %1, i64 104
  store i32 %56, ptr %57, align 8, !tbaa !96
  %58 = getelementptr inbounds nuw i8, ptr %0, i64 1128
  %59 = load double, ptr %58, align 8, !tbaa !97
  %60 = getelementptr inbounds nuw i8, ptr %1, i64 112
  store double %59, ptr %60, align 8, !tbaa !98
  %61 = getelementptr inbounds nuw i8, ptr %0, i64 1136
  %62 = load double, ptr %61, align 8, !tbaa !99
  %63 = getelementptr inbounds nuw i8, ptr %1, i64 120
  store double %62, ptr %63, align 8, !tbaa !100
  %64 = getelementptr inbounds nuw i8, ptr %0, i64 1144
  %65 = load i32, ptr %64, align 8, !tbaa !68
  %66 = getelementptr inbounds nuw i8, ptr %1, i64 128
  store i32 %65, ptr %66, align 8, !tbaa !101
  %67 = getelementptr inbounds nuw i8, ptr %0, i64 1152
  %68 = load double, ptr %67, align 8, !tbaa !102
  %69 = getelementptr inbounds nuw i8, ptr %1, i64 136
  store double %68, ptr %69, align 8, !tbaa !103
  %70 = getelementptr inbounds nuw i8, ptr %0, i64 1160
  %71 = load double, ptr %70, align 8, !tbaa !104
  %72 = getelementptr inbounds nuw i8, ptr %1, i64 144
  store double %71, ptr %72, align 8, !tbaa !105
  %73 = getelementptr inbounds nuw i8, ptr %0, i64 1168
  %74 = load i8, ptr %73, align 8, !tbaa !106, !range !7, !noundef !8
  %75 = getelementptr inbounds nuw i8, ptr %1, i64 152
  store i8 %74, ptr %75, align 8, !tbaa !107
  %76 = getelementptr inbounds nuw i8, ptr %0, i64 1176
  %77 = load i64, ptr %76, align 8, !tbaa !108
  %78 = getelementptr inbounds nuw i8, ptr %1, i64 160
  store i64 %77, ptr %78, align 8, !tbaa !109
  %79 = getelementptr inbounds nuw i8, ptr %0, i64 1184
  %80 = load i32, ptr %79, align 8, !tbaa !110
  %81 = getelementptr inbounds nuw i8, ptr %1, i64 168
  store i32 %80, ptr %81, align 8, !tbaa !111
  %82 = getelementptr inbounds nuw i8, ptr %0, i64 1188
  %83 = load i8, ptr %82, align 4, !tbaa !112, !range !7, !noundef !8
  %84 = getelementptr inbounds nuw i8, ptr %1, i64 172
  store i8 %83, ptr %84, align 4, !tbaa !113
  %85 = getelementptr inbounds nuw i8, ptr %0, i64 1192
  %86 = load double, ptr %85, align 8, !tbaa !114
  %87 = getelementptr inbounds nuw i8, ptr %1, i64 176
  store double %86, ptr %87, align 8, !tbaa !115
  br label %88

88:                                               ; preds = %13, %17, %2
  %.0 = phi i32 [ -1, %13 ], [ 0, %17 ], [ 0, %2 ]
  ret i32 %.0
}